; Function Attrs: mustprogress nounwind uwtable
define dso_local void @_ZN4llvm10ConstantFPC2EPNS_4TypeERKNS_7APFloatE(ptr noundef nonnull align 8 dereferenceable(56) %0, ptr noundef %1, ptr noundef nonnull align 8 dereferenceable(32) %2) unnamed_addr #0 align 2 {
  tail call void @_ZN4llvm5ValueC2EPNS_4TypeEj(ptr noundef nonnull align 8 dereferenceable(24) %0, ptr noundef %1, i32 noundef 18) #28
  %4 = getelementptr inbounds nuw i8, ptr %0, i64 4
  %5 = load i32, ptr %4, align 4
  %6 = and i32 %5, -134217728
  store i32 %6, ptr %4, align 4
  %7 = getelementptr inbounds i8, ptr %0, i64 32
  %8 = getelementptr inbounds nuw i8, ptr %2, i64 8
  %9 = load ptr, ptr %8, align 8
  %10 = tail call noundef nonnull align 1 ptr @_ZN4llvm11APFloatBase15PPCDoubleDoubleEv() #29
  %.not.i.i = icmp eq ptr %9, %10
  br i1 %.not.i.i, label %12, label %11

11:                                               ; preds = %3
  tail call void @_ZN4llvm6detail9IEEEFloatC1ERKS1_(ptr noundef nonnull align 8 dereferenceable(24) %7, ptr noundef nonnull align 8 dereferenceable(24) %8) #28
  br label %_ZN4llvm7APFloatC2ERKS0_.exit

12:                                               ; preds = %3
  tail call void @_ZN4llvm6detail13DoubleAPFloatC1ERKS1_(ptr noundef nonnull align 8 dereferenceable(16) %7, ptr noundef nonnull align 8 dereferenceable(16) %8) #28
  br label %_ZN4llvm7APFloatC2ERKS0_.exit

_ZN4llvm7APFloatC2ERKS0_.exit:                    ; preds = %11, %12
  ret void
}